target datalayout = "e-m:e-p270:32:32-p271:32:32-p272:64:64-i64:64-i128:128-f80:128-n8:16:32:64-S128"
target triple = "x86_64-pc-linux-gnu"

%struct.rlimit = type { i64, i64 }

; Function Attrs: mustprogress nounwind uwtable
define internal void @_ZL15SetMemoryLimitsj(i32 noundef %0) #0 {
  %2 = alloca i32, align 4
  %3 = alloca %struct.rlimit, align 8
  %4 = alloca i64, align 8
  store i32 %0, ptr %2, align 4
  %5 = load i32, ptr %2, align 4
  %6 = zext i32 %5 to i64
  %7 = mul i64 %6, 1048576
  store i64 %7, ptr %4, align 8
  %8 = call i32 @getrlimit(i32 noundef 2, ptr noundef %3) #6
  %9 = load i64, ptr %4, align 8
  %10 = getelementptr inbounds nuw %struct.rlimit, ptr %3, i32 0, i32 0
  store i64 %9, ptr %10, align 8
  %11 = call i32 @setrlimit(i32 noundef 2, ptr noundef %3) #6
  %12 = call i32 @getrlimit(i32 noundef 5, ptr noundef %3) #6
  %13 = load i64, ptr %4, align 8
  %14 = getelementptr inbounds nuw %struct.rlimit, ptr %3, i32 0, i32 0
  store i64 %13, ptr %14, align 8
  %15 = call i32 @setrlimit(i32 noundef 5, ptr noundef %3) #6
  ret void
}