; Function Attrs: mustprogress nounwind uwtable
define internal fastcc void @_ZL15SetMemoryLimitsj(i32 noundef %0) unnamed_addr #0 {
  %2 = alloca %struct.rlimit, align 8
  %3 = zext i32 %0 to i64
  %4 = shl nuw nsw i64 %3, 20
  %5 = call i32 @getrlimit(i32 noundef 2, ptr noundef nonnull %2) #21
  store i64 %4, ptr %2, align 8
  %6 = call i32 @setrlimit(i32 noundef 2, ptr noundef nonnull %2) #21
  %7 = call i32 @getrlimit(i32 noundef 5, ptr noundef nonnull %2) #21
  store i64 %4, ptr %2, align 8
  %8 = call i32 @setrlimit(i32 noundef 5, ptr noundef nonnull %2) #21
  ret void
}